target datalayout = "e-m:e-p270:32:32-p271:32:32-p272:64:64-i64:64-i128:128-f80:128-n8:16:32:64-S128"
target triple = "x86_64-pc-linux-gnu"

@CacheMemoryContext = external global ptr, align 8
@Mode = external global i32, align 4
@.str.15 = private unnamed_addr constant [12 x i8] c"pg_database\00", align 1
@.str.16 = private unnamed_addr constant [10 x i8] c"pg_authid\00", align 1
@.str.17 = private unnamed_addr constant [16 x i8] c"pg_auth_members\00", align 1
@.str.18 = private unnamed_addr constant [14 x i8] c"pg_shseclabel\00", align 1
@.str.19 = private unnamed_addr constant [16 x i8] c"pg_subscription\00", align 1
@CurrentMemoryContext = external global ptr, align 8

; Function Attrs: inlinehint nounwind uwtable
define internal ptr @MemoryContextSwitchTo(ptr noundef %0) #3 {
  %2 = alloca ptr, align 8
  %3 = alloca ptr, align 8
  store ptr %0, ptr %2, align 8
  call void @llvm.lifetime.start.p0(i64 8, ptr %3) #11
  %4 = load ptr, ptr @CurrentMemoryContext, align 8
  store ptr %4, ptr %3, align 8
  %5 = load ptr, ptr %2, align 8
  store ptr %5, ptr @CurrentMemoryContext, align 8
  %6 = load ptr, ptr %3, align 8
  call void @llvm.lifetime.end.p0(i64 8, ptr %3) #11
  ret ptr %6
}

; Function Attrs: nounwind uwtable
define dso_local void @RelationCacheInitializePhase2() #0 {
  %1 = alloca ptr, align 8
  %2 = alloca i32, align 4
  call void @llvm.lifetime.start.p0(i64 8, ptr %1) #11
  call void @RelationMapInitializePhase2()
  %3 = load i32, ptr @Mode, align 4
  %4 = icmp eq i32 %3, 0
  br i1 %4, label %5, label %6

5:                                                ; preds = %0
  store i32 1, ptr %2, align 4
  br label %14

6:                                                ; preds = %0
  %7 = load ptr, ptr @CacheMemoryContext, align 8
  %8 = call ptr @MemoryContextSwitchTo(ptr noundef %7)
  store ptr %8, ptr %1, align 8
  %9 = call zeroext i1 @load_relcache_init_file(i1 noundef zeroext true)
  br i1 %9, label %11, label %10

10:                                               ; preds = %6
  call void @formrdesc(ptr noundef @.str.15, i32 noundef 1248, i1 noundef zeroext true, i32 noundef 18, ptr noundef @Desc_pg_database)
  call void @formrdesc(ptr noundef @.str.16, i32 noundef 2842, i1 noundef zeroext true, i32 noundef 12, ptr noundef @Desc_pg_authid)
  call void @formrdesc(ptr noundef @.str.17, i32 noundef 2843, i1 noundef zeroext true, i32 noundef 7, ptr noundef @Desc_pg_auth_members)
  call void @formrdesc(ptr noundef @.str.18, i32 noundef 4066, i1 noundef zeroext true, i32 noundef 4, ptr noundef @Desc_pg_shseclabel)
  call void @formrdesc(ptr noundef @.str.19, i32 noundef 6101, i1 noundef zeroext true, i32 noundef 18, ptr noundef @Desc_pg_subscription)
  br label %11

11:                                               ; preds = %10, %6
  %12 = load ptr, ptr %1, align 8
  %13 = call ptr @MemoryContextSwitchTo(ptr noundef %12)
  store i32 0, ptr %2, align 4
  br label %14

14:                                               ; preds = %11, %5
  call void @llvm.lifetime.end.p0(i64 8, ptr %1) #11
  %15 = load i32, ptr %2, align 4
  switch i32 %15, label %17 [
    i32 0, label %16
    i32 1, label %16
  ]

16:                                               ; preds = %14, %14
  ret void

17:                                               ; preds = %14
  unreachable
}