; Function Attrs: nounwind uwtable
define dso_local void @RelationCacheInitializePhase2() local_unnamed_addr #0 {
  tail call void @RelationMapInitializePhase2() #13
  %1 = load i32, ptr @Mode, align 4
  %2 = icmp eq i32 %1, 0
  br i1 %2, label %9, label %3

3:                                                ; preds = %0
  %4 = load ptr, ptr @CacheMemoryContext, align 8
  %5 = load ptr, ptr @CurrentMemoryContext, align 8
  store ptr %4, ptr @CurrentMemoryContext, align 8
  %6 = tail call fastcc zeroext i1 @load_relcache_init_file(i1 noundef zeroext true)
  br i1 %6, label %8, label %7

7:                                                ; preds = %3
  tail call fastcc void @formrdesc(ptr noundef nonnull @.str.15, i32 noundef 1248, i1 noundef zeroext true, i32 noundef 18, ptr noundef nonnull @Desc_pg_database)
  tail call fastcc void @formrdesc(ptr noundef nonnull @.str.16, i32 noundef 2842, i1 noundef zeroext true, i32 noundef 12, ptr noundef nonnull @Desc_pg_authid)
  tail call fastcc void @formrdesc(ptr noundef nonnull @.str.17, i32 noundef 2843, i1 noundef zeroext true, i32 noundef 7, ptr noundef nonnull @Desc_pg_auth_members)
  tail call fastcc void @formrdesc(ptr noundef nonnull @.str.18, i32 noundef 4066, i1 noundef zeroext true, i32 noundef 4, ptr noundef nonnull @Desc_pg_shseclabel)
  tail call fastcc void @formrdesc(ptr noundef nonnull @.str.19, i32 noundef 6101, i1 noundef zeroext true, i32 noundef 18, ptr noundef nonnull @Desc_pg_subscription)
  br label %8

8:                                                ; preds = %7, %3
  store ptr %5, ptr @CurrentMemoryContext, align 8
  br label %9

9:                                                ; preds = %0, %8
  ret void
}